target datalayout = "e-m:e-p270:32:32-p271:32:32-p272:64:64-i64:64-i128:128-f80:128-n8:16:32:64-S128"
target triple = "x86_64-unknown-linux-gnu"

%"class.icu_75::BreakIterator" = type <{ %"class.icu_75::UObject", [157 x i8], [157 x i8], [157 x i8], i8 }>
%"class.icu_75::UObject" = type { ptr }

; Function Attrs: mustprogress nounwind uwtable
define noundef nonnull align 8 dereferenceable(479) ptr @_ZN6icu_7513BreakIteratoraSERKS0_(ptr noundef nonnull align 8 dereferenceable(479) %this, ptr noundef nonnull align 8 dereferenceable(479) %other) #0 align 2 {
entry:
  %this.addr = alloca ptr, align 8
  %other.addr = alloca ptr, align 8
  store ptr %this, ptr %this.addr, align 8
  store ptr %other, ptr %other.addr, align 8
  %this1 = load ptr, ptr %this.addr, align 8
  %0 = load ptr, ptr %other.addr, align 8
  %cmp = icmp ne ptr %this1, %0
  br i1 %cmp, label %if.then, label %if.end

if.then:                                          ; preds = %entry
  %actualLocale = getelementptr inbounds %"class.icu_75::BreakIterator", ptr %this1, i32 0, i32 1
  %arraydecay = getelementptr inbounds [157 x i8], ptr %actualLocale, i64 0, i64 0
  %1 = load ptr, ptr %other.addr, align 8
  %actualLocale2 = getelementptr inbounds %"class.icu_75::BreakIterator", ptr %1, i32 0, i32 1
  %arraydecay3 = getelementptr inbounds [157 x i8], ptr %actualLocale2, i64 0, i64 0
  %call = call ptr @strncpy(ptr noundef %arraydecay, ptr noundef %arraydecay3, i64 noundef 157) #10
  %validLocale = getelementptr inbounds %"class.icu_75::BreakIterator", ptr %this1, i32 0, i32 2
  %arraydecay4 = getelementptr inbounds [157 x i8], ptr %validLocale, i64 0, i64 0
  %2 = load ptr, ptr %other.addr, align 8
  %validLocale5 = getelementptr inbounds %"class.icu_75::BreakIterator", ptr %2, i32 0, i32 2
  %arraydecay6 = getelementptr inbounds [157 x i8], ptr %validLocale5, i64 0, i64 0
  %call7 = call ptr @strncpy(ptr noundef %arraydecay4, ptr noundef %arraydecay6, i64 noundef 157) #10
  %requestLocale = getelementptr inbounds %"class.icu_75::BreakIterator", ptr %this1, i32 0, i32 3
  %arraydecay8 = getelementptr inbounds [157 x i8], ptr %requestLocale, i64 0, i64 0
  %3 = load ptr, ptr %other.addr, align 8
  %requestLocale9 = getelementptr inbounds %"class.icu_75::BreakIterator", ptr %3, i32 0, i32 3
  %arraydecay10 = getelementptr inbounds [157 x i8], ptr %requestLocale9, i64 0, i64 0
  %call11 = call ptr @strncpy(ptr noundef %arraydecay8, ptr noundef %arraydecay10, i64 noundef 157) #10
  br label %if.end

if.end:                                           ; preds = %if.then, %entry
  ret ptr %this1
}