; Function Attrs: mustprogress nofree nounwind willreturn memory(argmem: readwrite) uwtable
define noundef nonnull align 8 dereferenceable(479) ptr @_ZN6icu_7513BreakIteratoraSERKS0_(ptr noundef nonnull returned align 8 dereferenceable(479) %this, ptr noundef nonnull readonly align 8 dereferenceable(479) %other) local_unnamed_addr #11 align 2 {
entry:
  %cmp.not = icmp eq ptr %this, %other
  br i1 %cmp.not, label %if.end, label %if.then

if.then:                                          ; preds = %entry
  %actualLocale = getelementptr inbounds i8, ptr %this, i64 8
  %actualLocale2 = getelementptr inbounds i8, ptr %other, i64 8
  %call = tail call ptr @strncpy(ptr noundef nonnull dereferenceable(1) %actualLocale, ptr noundef nonnull dereferenceable(1) %actualLocale2, i64 noundef 157) #18
  %validLocale = getelementptr inbounds i8, ptr %this, i64 165
  %validLocale5 = getelementptr inbounds i8, ptr %other, i64 165
  %call7 = tail call ptr @strncpy(ptr noundef nonnull dereferenceable(1) %validLocale, ptr noundef nonnull dereferenceable(1) %validLocale5, i64 noundef 157) #18
  %requestLocale = getelementptr inbounds i8, ptr %this, i64 322
  %requestLocale9 = getelementptr inbounds i8, ptr %other, i64 322
  %call11 = tail call ptr @strncpy(ptr noundef nonnull dereferenceable(1) %requestLocale, ptr noundef nonnull dereferenceable(1) %requestLocale9, i64 noundef 157) #18
  br label %if.end

if.end:                                           ; preds = %if.then, %entry
  ret ptr %this
}